; Function Attrs: nounwind uwtable
define dso_local ptr @system_path(ptr noundef %0) local_unnamed_addr #1 {
  %2 = alloca %struct.strbuf, align 8
  call void @llvm.lifetime.start.p0(i64 24, ptr nonnull %2) #10
  call void @llvm.memcpy.p0.p0.i64(ptr noundef nonnull align 8 dereferenceable(24) %2, ptr noundef nonnull align 8 dereferenceable(24) @__const.setup_path.new_path, i64 24, i1 false)
  %.val = load i8, ptr %0, align 1, !tbaa !4
  %.not = icmp eq i8 %.val, 47
  br i1 %.not, label %3, label %5

3:                                                ; preds = %1
  %4 = tail call ptr @xstrdup(ptr noundef nonnull %0) #10
  br label %7

5:                                                ; preds = %1
  call void (ptr, ptr, ...) @strbuf_addf(ptr noundef nonnull %2, ptr noundef nonnull @.str, ptr noundef nonnull @.str.10, ptr noundef nonnull %0) #10
  %6 = call ptr @strbuf_detach(ptr noundef nonnull %2, ptr noundef null) #10
  br label %7

7:                                                ; preds = %5, %3
  %.0 = phi ptr [ %4, %3 ], [ %6, %5 ]
  call void @llvm.lifetime.end.p0(i64 24, ptr nonnull %2) #10
  ret ptr %.0
}